target datalayout = "e-m:e-p270:32:32-p271:32:32-p272:64:64-i64:64-i128:128-f80:128-n8:16:32:64-S128"
target triple = "x86_64-pc-linux-gnu"

%"class.cv::Moments" = type { double, double, double, double, double, double, double, double, double, double, double, double, double, double, double, double, double, double, double, double, double, double, double, double }

@.str.49 = private unnamed_addr constant [98 x i8] c"{s:d,s:d,s:d,s:d,s:d,s:d,s:d,s:d,s:d,s:d,s:d,s:d,s:d,s:d,s:d,s:d,s:d,s:d,s:d,s:d,s:d,s:d,s:d,s:d}\00", align 1
@.str.50 = private unnamed_addr constant [4 x i8] c"m00\00", align 1
@.str.51 = private unnamed_addr constant [4 x i8] c"m10\00", align 1
@.str.52 = private unnamed_addr constant [4 x i8] c"m01\00", align 1
@.str.53 = private unnamed_addr constant [4 x i8] c"m20\00", align 1
@.str.54 = private unnamed_addr constant [4 x i8] c"m11\00", align 1
@.str.55 = private unnamed_addr constant [4 x i8] c"m02\00", align 1
@.str.56 = private unnamed_addr constant [4 x i8] c"m30\00", align 1
@.str.57 = private unnamed_addr constant [4 x i8] c"m21\00", align 1
@.str.58 = private unnamed_addr constant [4 x i8] c"m12\00", align 1
@.str.59 = private unnamed_addr constant [4 x i8] c"m03\00", align 1
@.str.60 = private unnamed_addr constant [5 x i8] c"mu20\00", align 1
@.str.61 = private unnamed_addr constant [5 x i8] c"mu11\00", align 1
@.str.62 = private unnamed_addr constant [5 x i8] c"mu02\00", align 1
@.str.63 = private unnamed_addr constant [5 x i8] c"mu30\00", align 1
@.str.64 = private unnamed_addr constant [5 x i8] c"mu21\00", align 1
@.str.65 = private unnamed_addr constant [5 x i8] c"mu12\00", align 1
@.str.66 = private unnamed_addr constant [5 x i8] c"mu03\00", align 1
@.str.67 = private unnamed_addr constant [5 x i8] c"nu20\00", align 1
@.str.68 = private unnamed_addr constant [5 x i8] c"nu11\00", align 1
@.str.69 = private unnamed_addr constant [5 x i8] c"nu02\00", align 1
@.str.70 = private unnamed_addr constant [5 x i8] c"nu30\00", align 1
@.str.71 = private unnamed_addr constant [5 x i8] c"nu21\00", align 1
@.str.72 = private unnamed_addr constant [5 x i8] c"nu12\00", align 1
@.str.73 = private unnamed_addr constant [5 x i8] c"nu03\00", align 1

; Function Attrs: mustprogress uwtable
define hidden noundef ptr @_Z13pyopencv_fromIN2cv7MomentsEEP7_objectRKT_(ptr noundef nonnull align 8 dereferenceable(192) %0) #4 {
  %2 = alloca ptr, align 8
  store ptr %0, ptr %2, align 8
  %3 = load ptr, ptr %2, align 8
  %4 = getelementptr inbounds %"class.cv::Moments", ptr %3, i32 0, i32 0
  %5 = load double, ptr %4, align 8
  %6 = load ptr, ptr %2, align 8
  %7 = getelementptr inbounds %"class.cv::Moments", ptr %6, i32 0, i32 1
  %8 = load double, ptr %7, align 8
  %9 = load ptr, ptr %2, align 8
  %10 = getelementptr inbounds %"class.cv::Moments", ptr %9, i32 0, i32 2
  %11 = load double, ptr %10, align 8
  %12 = load ptr, ptr %2, align 8
  %13 = getelementptr inbounds %"class.cv::Moments", ptr %12, i32 0, i32 3
  %14 = load double, ptr %13, align 8
  %15 = load ptr, ptr %2, align 8
  %16 = getelementptr inbounds %"class.cv::Moments", ptr %15, i32 0, i32 4
  %17 = load double, ptr %16, align 8
  %18 = load ptr, ptr %2, align 8
  %19 = getelementptr inbounds %"class.cv::Moments", ptr %18, i32 0, i32 5
  %20 = load double, ptr %19, align 8
  %21 = load ptr, ptr %2, align 8
  %22 = getelementptr inbounds %"class.cv::Moments", ptr %21, i32 0, i32 6
  %23 = load double, ptr %22, align 8
  %24 = load ptr, ptr %2, align 8
  %25 = getelementptr inbounds %"class.cv::Moments", ptr %24, i32 0, i32 7
  %26 = load double, ptr %25, align 8
  %27 = load ptr, ptr %2, align 8
  %28 = getelementptr inbounds %"class.cv::Moments", ptr %27, i32 0, i32 8
  %29 = load double, ptr %28, align 8
  %30 = load ptr, ptr %2, align 8
  %31 = getelementptr inbounds %"class.cv::Moments", ptr %30, i32 0, i32 9
  %32 = load double, ptr %31, align 8
  %33 = load ptr, ptr %2, align 8
  %34 = getelementptr inbounds %"class.cv::Moments", ptr %33, i32 0, i32 10
  %35 = load double, ptr %34, align 8
  %36 = load ptr, ptr %2, align 8
  %37 = getelementptr inbounds %"class.cv::Moments", ptr %36, i32 0, i32 11
  %38 = load double, ptr %37, align 8
  %39 = load ptr, ptr %2, align 8
  %40 = getelementptr inbounds %"class.cv::Moments", ptr %39, i32 0, i32 12
  %41 = load double, ptr %40, align 8
  %42 = load ptr, ptr %2, align 8
  %43 = getelementptr inbounds %"class.cv::Moments", ptr %42, i32 0, i32 13
  %44 = load double, ptr %43, align 8
  %45 = load ptr, ptr %2, align 8
  %46 = getelementptr inbounds %"class.cv::Moments", ptr %45, i32 0, i32 14
  %47 = load double, ptr %46, align 8
  %48 = load ptr, ptr %2, align 8
  %49 = getelementptr inbounds %"class.cv::Moments", ptr %48, i32 0, i32 15
  %50 = load double, ptr %49, align 8
  %51 = load ptr, ptr %2, align 8
  %52 = getelementptr inbounds %"class.cv::Moments", ptr %51, i32 0, i32 16
  %53 = load double, ptr %52, align 8
  %54 = load ptr, ptr %2, align 8
  %55 = getelementptr inbounds %"class.cv::Moments", ptr %54, i32 0, i32 17
  %56 = load double, ptr %55, align 8
  %57 = load ptr, ptr %2, align 8
  %58 = getelementptr inbounds %"class.cv::Moments", ptr %57, i32 0, i32 18
  %59 = load double, ptr %58, align 8
  %60 = load ptr, ptr %2, align 8
  %61 = getelementptr inbounds %"class.cv::Moments", ptr %60, i32 0, i32 19
  %62 = load double, ptr %61, align 8
  %63 = load ptr, ptr %2, align 8
  %64 = getelementptr inbounds %"class.cv::Moments", ptr %63, i32 0, i32 20
  %65 = load double, ptr %64, align 8
  %66 = load ptr, ptr %2, align 8
  %67 = getelementptr inbounds %"class.cv::Moments", ptr %66, i32 0, i32 21
  %68 = load double, ptr %67, align 8
  %69 = load ptr, ptr %2, align 8
  %70 = getelementptr inbounds %"class.cv::Moments", ptr %69, i32 0, i32 22
  %71 = load double, ptr %70, align 8
  %72 = load ptr, ptr %2, align 8
  %73 = getelementptr inbounds %"class.cv::Moments", ptr %72, i32 0, i32 23
  %74 = load double, ptr %73, align 8
  %75 = call ptr (ptr, ...) @Py_BuildValue(ptr noundef @.str.49, ptr noundef @.str.50, double noundef %5, ptr noundef @.str.51, double noundef %8, ptr noundef @.str.52, double noundef %11, ptr noundef @.str.53, double noundef %14, ptr noundef @.str.54, double noundef %17, ptr noundef @.str.55, double noundef %20, ptr noundef @.str.56, double noundef %23, ptr noundef @.str.57, double noundef %26, ptr noundef @.str.58, double noundef %29, ptr noundef @.str.59, double noundef %32, ptr noundef @.str.60, double noundef %35, ptr noundef @.str.61, double noundef %38, ptr noundef @.str.62, double noundef %41, ptr noundef @.str.63, double noundef %44, ptr noundef @.str.64, double noundef %47, ptr noundef @.str.65, double noundef %50, ptr noundef @.str.66, double noundef %53, ptr noundef @.str.67, double noundef %56, ptr noundef @.str.68, double noundef %59, ptr noundef @.str.69, double noundef %62, ptr noundef @.str.70, double noundef %65, ptr noundef @.str.71, double noundef %68, ptr noundef @.str.72, double noundef %71, ptr noundef @.str.73, double noundef %74)
  ret ptr %75
}