; Function Attrs: mustprogress uwtable
define hidden noundef ptr @_Z13pyopencv_fromIN2cv7MomentsEEP7_objectRKT_(ptr nocapture noundef nonnull readonly align 8 dereferenceable(192) %0) local_unnamed_addr #3 {
  %2 = load double, ptr %0, align 8
  %3 = getelementptr inbounds i8, ptr %0, i64 8
  %4 = load double, ptr %3, align 8
  %5 = getelementptr inbounds i8, ptr %0, i64 16
  %6 = load double, ptr %5, align 8
  %7 = getelementptr inbounds i8, ptr %0, i64 24
  %8 = load double, ptr %7, align 8
  %9 = getelementptr inbounds i8, ptr %0, i64 32
  %10 = load double, ptr %9, align 8
  %11 = getelementptr inbounds i8, ptr %0, i64 40
  %12 = load double, ptr %11, align 8
  %13 = getelementptr inbounds i8, ptr %0, i64 48
  %14 = load double, ptr %13, align 8
  %15 = getelementptr inbounds i8, ptr %0, i64 56
  %16 = load double, ptr %15, align 8
  %17 = getelementptr inbounds i8, ptr %0, i64 64
  %18 = load double, ptr %17, align 8
  %19 = getelementptr inbounds i8, ptr %0, i64 72
  %20 = load double, ptr %19, align 8
  %21 = getelementptr inbounds i8, ptr %0, i64 80
  %22 = load double, ptr %21, align 8
  %23 = getelementptr inbounds i8, ptr %0, i64 88
  %24 = load double, ptr %23, align 8
  %25 = getelementptr inbounds i8, ptr %0, i64 96
  %26 = load double, ptr %25, align 8
  %27 = getelementptr inbounds i8, ptr %0, i64 104
  %28 = load double, ptr %27, align 8
  %29 = getelementptr inbounds i8, ptr %0, i64 112
  %30 = load double, ptr %29, align 8
  %31 = getelementptr inbounds i8, ptr %0, i64 120
  %32 = load double, ptr %31, align 8
  %33 = getelementptr inbounds i8, ptr %0, i64 128
  %34 = load double, ptr %33, align 8
  %35 = getelementptr inbounds i8, ptr %0, i64 136
  %36 = load double, ptr %35, align 8
  %37 = getelementptr inbounds i8, ptr %0, i64 144
  %38 = load double, ptr %37, align 8
  %39 = getelementptr inbounds i8, ptr %0, i64 152
  %40 = load double, ptr %39, align 8
  %41 = getelementptr inbounds i8, ptr %0, i64 160
  %42 = load double, ptr %41, align 8
  %43 = getelementptr inbounds i8, ptr %0, i64 168
  %44 = load double, ptr %43, align 8
  %45 = getelementptr inbounds i8, ptr %0, i64 176
  %46 = load double, ptr %45, align 8
  %47 = getelementptr inbounds i8, ptr %0, i64 184
  %48 = load double, ptr %47, align 8
  %49 = tail call ptr (ptr, ...) @Py_BuildValue(ptr noundef nonnull @.str.49, ptr noundef nonnull @.str.50, double noundef %2, ptr noundef nonnull @.str.51, double noundef %4, ptr noundef nonnull @.str.52, double noundef %6, ptr noundef nonnull @.str.53, double noundef %8, ptr noundef nonnull @.str.54, double noundef %10, ptr noundef nonnull @.str.55, double noundef %12, ptr noundef nonnull @.str.56, double noundef %14, ptr noundef nonnull @.str.57, double noundef %16, ptr noundef nonnull @.str.58, double noundef %18, ptr noundef nonnull @.str.59, double noundef %20, ptr noundef nonnull @.str.60, double noundef %22, ptr noundef nonnull @.str.61, double noundef %24, ptr noundef nonnull @.str.62, double noundef %26, ptr noundef nonnull @.str.63, double noundef %28, ptr noundef nonnull @.str.64, double noundef %30, ptr noundef nonnull @.str.65, double noundef %32, ptr noundef nonnull @.str.66, double noundef %34, ptr noundef nonnull @.str.67, double noundef %36, ptr noundef nonnull @.str.68, double noundef %38, ptr noundef nonnull @.str.69, double noundef %40, ptr noundef nonnull @.str.70, double noundef %42, ptr noundef nonnull @.str.71, double noundef %44, ptr noundef nonnull @.str.72, double noundef %46, ptr noundef nonnull @.str.73, double noundef %48)
  ret ptr %49
}